target datalayout = "e-m:e-p270:32:32-p271:32:32-p272:64:64-i64:64-i128:128-f80:128-n8:16:32:64-S128"
target triple = "x86_64-pc-linux-gnu"

%class.IOPluginContainer = type { %"class.std::vector", %class.QMap, %class.QMap, %class.QMap, %class.QMap, %class.QMap, %class.QMap }
%"class.std::vector" = type { %"struct.std::_Vector_base" }
%"struct.std::_Vector_base" = type { %"struct.std::_Vector_base<IOPlugin *, std::allocator<IOPlugin *>>::_Vector_impl" }
%"struct.std::_Vector_base<IOPlugin *, std::allocator<IOPlugin *>>::_Vector_impl" = type { %"struct.std::_Vector_base<IOPlugin *, std::allocator<IOPlugin *>>::_Vector_impl_data" }
%"struct.std::_Vector_base<IOPlugin *, std::allocator<IOPlugin *>>::_Vector_impl_data" = type { ptr, ptr, ptr }
%class.QMap = type { ptr }

; Function Attrs: mustprogress nounwind uwtable
define linkonce_odr noundef i64 @_ZNKSt6vectorIP8IOPluginSaIS1_EE4sizeEv(ptr noundef nonnull align 8 dereferenceable(24) %0) #4 comdat align 2 {
  %2 = alloca ptr, align 8
  store ptr %0, ptr %2, align 8
  %3 = load ptr, ptr %2, align 8
  %4 = getelementptr inbounds %"struct.std::_Vector_base", ptr %3, i32 0, i32 0
  %5 = getelementptr inbounds %"struct.std::_Vector_base<IOPlugin *, std::allocator<IOPlugin *>>::_Vector_impl_data", ptr %4, i32 0, i32 1
  %6 = load ptr, ptr %5, align 8
  %7 = getelementptr inbounds %"struct.std::_Vector_base", ptr %3, i32 0, i32 0
  %8 = getelementptr inbounds %"struct.std::_Vector_base<IOPlugin *, std::allocator<IOPlugin *>>::_Vector_impl_data", ptr %7, i32 0, i32 0
  %9 = load ptr, ptr %8, align 8
  %10 = ptrtoint ptr %6 to i64
  %11 = ptrtoint ptr %9 to i64
  %12 = sub i64 %10, %11
  %13 = sdiv exact i64 %12, 8
  ret i64 %13
}

; Function Attrs: mustprogress nounwind uwtable
define noundef i64 @_ZNK17IOPluginContainer4sizeEv(ptr noundef nonnull align 8 dereferenceable(72) %0) #4 align 2 {
  %2 = alloca ptr, align 8
  store ptr %0, ptr %2, align 8
  %3 = load ptr, ptr %2, align 8
  %4 = getelementptr inbounds %class.IOPluginContainer, ptr %3, i32 0, i32 0
  %5 = call noundef i64 @_ZNKSt6vectorIP8IOPluginSaIS1_EE4sizeEv(ptr noundef nonnull align 8 dereferenceable(24) %4) #3
  ret i64 %5
}